target datalayout = "e-m:e-p270:32:32-p271:32:32-p272:64:64-i64:64-i128:128-f80:128-n8:16:32:64-S128"
target triple = "x86_64-pc-linux-gnu"

; Function Attrs: mustprogress uwtable
define linkonce_odr noundef zeroext i1 @_ZN11OpenImageIO6v3_1_010Filesystem7IOProxy4seekEli(ptr noundef nonnull align 8 dereferenceable(88) %0, i64 noundef %1, i32 noundef %2) #6 comdat align 2 {
  %4 = alloca ptr, align 8
  %5 = alloca i64, align 8
  %6 = alloca i32, align 4
  store ptr %0, ptr %4, align 8, !tbaa !143
  store i64 %1, ptr %5, align 8, !tbaa !14
  store i32 %2, ptr %6, align 4, !tbaa !105
  %7 = load ptr, ptr %4, align 8
  %8 = load i32, ptr %6, align 4, !tbaa !105
  %9 = icmp eq i32 %8, 0
  br i1 %9, label %10, label %12

10:                                               ; preds = %3
  %11 = load i64, ptr %5, align 8, !tbaa !14
  br label %13

12:                                               ; preds = %3
  br label %13

13:                                               ; preds = %12, %10
  %14 = phi i64 [ %11, %10 ], [ 0, %12 ]
  %15 = load i32, ptr %6, align 4, !tbaa !105
  %16 = icmp eq i32 %15, 1
  br i1 %16, label %17, label %24

17:                                               ; preds = %13
  %18 = load i64, ptr %5, align 8, !tbaa !14
  %19 = load ptr, ptr %7, align 8, !tbaa !28
  %20 = getelementptr inbounds ptr, ptr %19, i64 5
  %21 = load ptr, ptr %20, align 8
  %22 = call noundef i64 %21(ptr noundef nonnull align 8 dereferenceable(88) %7)
  %23 = add nsw i64 %18, %22
  br label %25

24:                                               ; preds = %13
  br label %25

25:                                               ; preds = %24, %17
  %26 = phi i64 [ %23, %17 ], [ 0, %24 ]
  %27 = add nsw i64 %14, %26
  %28 = load i32, ptr %6, align 4, !tbaa !105
  %29 = icmp eq i32 %28, 2
  br i1 %29, label %30, label %37

30:                                               ; preds = %25
  %31 = load i64, ptr %5, align 8, !tbaa !14
  %32 = load ptr, ptr %7, align 8, !tbaa !28
  %33 = getelementptr inbounds ptr, ptr %32, i64 11
  %34 = load ptr, ptr %33, align 8
  %35 = call noundef i64 %34(ptr noundef nonnull align 8 dereferenceable(88) %7)
  %36 = add nsw i64 %31, %35
  br label %38

37:                                               ; preds = %25
  br label %38

38:                                               ; preds = %37, %30
  %39 = phi i64 [ %36, %30 ], [ 0, %37 ]
  %40 = add nsw i64 %27, %39
  %41 = load ptr, ptr %7, align 8, !tbaa !28
  %42 = getelementptr inbounds ptr, ptr %41, i64 6
  %43 = load ptr, ptr %42, align 8
  %44 = call noundef zeroext i1 %43(ptr noundef nonnull align 8 dereferenceable(88) %7, i64 noundef %40)
  ret i1 %44
}

; Function Attrs: mustprogress uwtable
define internal noundef i64 @_ZN11OpenImageIO6v3_1_0L15writer_seekprocEPvmi(ptr noundef %0, i64 noundef %1, i32 noundef %2) #6 {
  %4 = alloca ptr, align 8
  %5 = alloca i64, align 8
  %6 = alloca i32, align 4
  %7 = alloca ptr, align 8
  store ptr %0, ptr %4, align 8, !tbaa !142
  store i64 %1, ptr %5, align 8, !tbaa !14
  store i32 %2, ptr %6, align 4, !tbaa !105
  call void @llvm.lifetime.start.p0(i64 8, ptr %7) #3
  %8 = load ptr, ptr %4, align 8, !tbaa !142
  store ptr %8, ptr %7, align 8, !tbaa !143
  %9 = load ptr, ptr %7, align 8, !tbaa !143
  %10 = load i64, ptr %5, align 8, !tbaa !14
  %11 = load i32, ptr %6, align 4, !tbaa !105
  %12 = call noundef zeroext i1 @_ZN11OpenImageIO6v3_1_010Filesystem7IOProxy4seekEli(ptr noundef nonnull align 8 dereferenceable(88) %9, i64 noundef %10, i32 noundef %11)
  br i1 %12, label %13, label %19

13:                                               ; preds = %3
  %14 = load ptr, ptr %7, align 8, !tbaa !143
  %15 = load ptr, ptr %14, align 8, !tbaa !28
  %16 = getelementptr inbounds ptr, ptr %15, i64 5
  %17 = load ptr, ptr %16, align 8
  %18 = call noundef i64 %17(ptr noundef nonnull align 8 dereferenceable(88) %14)
  br label %20

19:                                               ; preds = %3
  br label %20

20:                                               ; preds = %19, %13
  %21 = phi i64 [ %18, %13 ], [ -1, %19 ]
  call void @llvm.lifetime.end.p0(i64 8, ptr %7) #3
  ret i64 %21
}